(iBayes
DAG
p0
(dp1
S'dag'
p2
(lp3
(iBayes
Dependence
p4
(dp5
S'y'
p6
(lp7
sS'x'
p8
I1
sba(iBayes
Dependence
p9
(dp10
g6
(lp11
I1
asg8
I3
sba(iBayes
Dependence
p12
(dp13
g6
(lp14
I3
aI1
asg8
I2
sba(iBayes
Dependence
p15
(dp16
g6
(lp17
I2
aI1
asg8
I0
sbasb.